; Function Attrs: mustprogress nounwind uwtable
define dso_local noundef zeroext i1 @_ZNK31cmGeneratorExpressionDAGChecker28EvaluatingCompileDefinitionsEv(ptr noundef nonnull align 8 dereferenceable(126) %0) local_unnamed_addr #4 align 2 personality ptr @__gxx_personality_v0 {
  %2 = getelementptr inbounds nuw i8, ptr %0, i64 16
  %3 = tail call noundef ptr @_ZNKSt7__cxx1112basic_stringIcSt11char_traitsIcESaIcEE5c_strEv(ptr noundef nonnull align 8 dereferenceable(32) %2) #19
  %4 = tail call i32 @strcmp(ptr noundef nonnull dereferenceable(1) %3, ptr noundef nonnull dereferenceable(20) @.str.12) #20
  %5 = icmp eq i32 %4, 0
  br i1 %5, label %_Z14additionalTestIL18TransitiveProperty2EEbPKc.exit, label %6

6:                                                ; preds = %1
  %7 = tail call i32 @strcmp(ptr noundef nonnull dereferenceable(1) %3, ptr noundef nonnull dereferenceable(30) @.str.32) #20
  %8 = icmp eq i32 %7, 0
  br i1 %8, label %_Z14additionalTestIL18TransitiveProperty2EEbPKc.exit, label %9

9:                                                ; preds = %6
  %10 = tail call noundef i64 @strlen(ptr noundef nonnull readonly dereferenceable(1) %3) #19
  %11 = icmp eq i64 %10, 0
  br i1 %11, label %_ZNSt11char_traitsIcE7compareEPKcS2_m.exit.thread.i.i.i.i.i, label %_ZNSt11char_traitsIcE7compareEPKcS2_m.exit.i.i.i.i.i

_ZNSt11char_traitsIcE7compareEPKcS2_m.exit.i.i.i.i.i: ; preds = %9
  %.sroa.speculated.i.i.i.i.i = tail call i64 @llvm.umin.i64(i64 %10, i64 20)
  %bcmp.i.i.i = tail call i32 @bcmp(ptr nonnull readonly %3, ptr nonnull @.str.28, i64 %.sroa.speculated.i.i.i.i.i)
  %12 = icmp eq i32 %bcmp.i.i.i, 0
  br i1 %12, label %_ZNSt11char_traitsIcE7compareEPKcS2_m.exit.thread.i.i.i.i.i, label %_Z14additionalTestIL18TransitiveProperty2EEbPKc.exit

_ZNSt11char_traitsIcE7compareEPKcS2_m.exit.thread.i.i.i.i.i: ; preds = %_ZNSt11char_traitsIcE7compareEPKcS2_m.exit.i.i.i.i.i, %9
  %13 = icmp ugt i64 %10, 19
  br label %_Z14additionalTestIL18TransitiveProperty2EEbPKc.exit

_Z14additionalTestIL18TransitiveProperty2EEbPKc.exit: ; preds = %_ZNSt11char_traitsIcE7compareEPKcS2_m.exit.thread.i.i.i.i.i, %_ZNSt11char_traitsIcE7compareEPKcS2_m.exit.i.i.i.i.i, %1, %6
  %.0 = phi i1 [ true, %6 ], [ true, %1 ], [ %13, %_ZNSt11char_traitsIcE7compareEPKcS2_m.exit.thread.i.i.i.i.i ], [ false, %_ZNSt11char_traitsIcE7compareEPKcS2_m.exit.i.i.i.i.i ]
  ret i1 %.0
}